; Function Attrs: mustprogress nofree norecurse nosync nounwind willreturn memory(read, argmem: readwrite, inaccessiblemem: none) uwtable
define void @tls1_get_requested_keyshare_groups(ptr noundef readonly captures(none) %0, ptr noundef writeonly captures(none) initializes((0, 8)) %1, ptr noundef writeonly captures(none) initializes((0, 8)) %2) local_unnamed_addr #7 {
  %4 = getelementptr inbounds nuw i8, ptr %0, i64 2704
  %5 = load ptr, ptr %4, align 8, !tbaa !132
  %6 = icmp eq ptr %5, null
  br i1 %6, label %7, label %12

7:                                                ; preds = %3
  %8 = getelementptr inbounds nuw i8, ptr %0, i64 8
  %9 = load ptr, ptr %8, align 8, !tbaa !126
  %10 = getelementptr inbounds nuw i8, ptr %9, i64 704
  %11 = getelementptr inbounds nuw i8, ptr %9, i64 712
  br label %15

12:                                               ; preds = %3
  %13 = getelementptr inbounds nuw i8, ptr %0, i64 2736
  %14 = getelementptr inbounds nuw i8, ptr %0, i64 2728
  br label %15

15:                                               ; preds = %12, %7
  %.sink.in = phi ptr [ %10, %7 ], [ %13, %12 ]
  %storemerge.in = phi ptr [ %11, %7 ], [ %14, %12 ]
  %.sink = load ptr, ptr %.sink.in, align 8, !tbaa !131
  store ptr %.sink, ptr %1, align 8, !tbaa !131
  %storemerge = load i64, ptr %storemerge.in, align 8, !tbaa !105
  store i64 %storemerge, ptr %2, align 8, !tbaa !105
  ret void
}